; Function Attrs: mustprogress uwtable
define ptr @uhash_initSize_77(ptr noundef %0, ptr noundef %1, ptr noundef %2, ptr noundef %3, i32 noundef %4, ptr noundef captures(none) %5) local_unnamed_addr #0 {
  br label %7

7:                                                ; preds = %6, %11
  %indvars.iv = phi i64 [ 0, %6 ], [ %indvars.iv.next, %11 ]
  %8 = getelementptr inbounds nuw [29 x i32], ptr @_ZL6PRIMES, i64 0, i64 %indvars.iv
  %9 = load i32, ptr %8, align 4, !tbaa !19
  %10 = icmp slt i32 %9, %4
  br i1 %10, label %11, label %.critedge.split.loop.exit11

11:                                               ; preds = %7
  %indvars.iv.next = add nuw nsw i64 %indvars.iv, 1
  %exitcond.not = icmp eq i64 %indvars.iv.next, 28
  br i1 %exitcond.not, label %.critedge, label %7, !llvm.loop !30

.critedge.split.loop.exit11:                      ; preds = %7
  %12 = trunc nuw nsw i64 %indvars.iv to i32
  br label %.critedge

.critedge:                                        ; preds = %11, %.critedge.split.loop.exit11
  %.0.lcssa = phi i32 [ %12, %.critedge.split.loop.exit11 ], [ 28, %11 ]
  %13 = load i32, ptr %5, align 4, !tbaa !3
  %14 = icmp slt i32 %13, 1
  br i1 %14, label %15, label %_ZL11_uhash_initP10UHashtablePFi8UElementEPFaS1_S1_ES5_iP10UErrorCode.exit

15:                                               ; preds = %.critedge
  %16 = getelementptr inbounds nuw i8, ptr %0, i64 8
  store ptr %1, ptr %16, align 8, !tbaa !7
  %17 = getelementptr inbounds nuw i8, ptr %0, i64 16
  store ptr %2, ptr %17, align 8, !tbaa !13
  %18 = getelementptr inbounds nuw i8, ptr %0, i64 24
  store ptr %3, ptr %18, align 8, !tbaa !14
  %19 = getelementptr inbounds nuw i8, ptr %0, i64 32
  %20 = getelementptr inbounds nuw i8, ptr %0, i64 73
  store i8 0, ptr %20, align 1, !tbaa !15
  %21 = getelementptr inbounds nuw i8, ptr %0, i64 68
  store float 0.000000e+00, ptr %21, align 4, !tbaa !16
  %22 = getelementptr inbounds nuw i8, ptr %0, i64 64
  tail call void @llvm.memset.p0.i64(ptr noundef nonnull align 8 dereferenceable(16) %19, i8 0, i64 16, i1 false)
  store float 5.000000e-01, ptr %22, align 8, !tbaa !17
  %23 = trunc i32 %.0.lcssa to i8
  %24 = getelementptr inbounds nuw i8, ptr %0, i64 72
  store i8 %23, ptr %24, align 8, !tbaa !18
  %25 = zext nneg i32 %.0.lcssa to i64
  %26 = getelementptr inbounds nuw [29 x i32], ptr @_ZL6PRIMES, i64 0, i64 %25
  %27 = load i32, ptr %26, align 4, !tbaa !19
  %28 = getelementptr inbounds nuw i8, ptr %0, i64 52
  store i32 %27, ptr %28, align 4, !tbaa !20
  %29 = sext i32 %27 to i64
  %30 = mul nsw i64 %29, 24
  %31 = tail call noalias ptr @uprv_malloc_77(i64 noundef %30) #12
  store ptr %31, ptr %0, align 8, !tbaa !21
  %32 = icmp eq ptr %31, null
  br i1 %32, label %33, label %34

33:                                               ; preds = %15
  store i32 7, ptr %5, align 4, !tbaa !3
  br label %_ZL11_uhash_initP10UHashtablePFi8UElementEPFaS1_S1_ES5_iP10UErrorCode.exit

34:                                               ; preds = %15
  %35 = load i32, ptr %28, align 4, !tbaa !20
  %36 = sext i32 %35 to i64
  %37 = getelementptr inbounds %struct.UHashElement, ptr %31, i64 %36
  %38 = icmp sgt i32 %35, 0
  br i1 %38, label %.lr.ph.i.i, label %._crit_edge.i.i

.lr.ph.i.i:                                       ; preds = %34, %.lr.ph.i.i
  %.025.i.i = phi ptr [ %40, %.lr.ph.i.i ], [ %31, %34 ]
  %39 = getelementptr inbounds nuw i8, ptr %.025.i.i, i64 8
  tail call void @llvm.memset.p0.i64(ptr noundef nonnull align 8 dereferenceable(16) %39, i8 0, i64 16, i1 false)
  store i32 -2147483647, ptr %.025.i.i, align 8, !tbaa !22
  %40 = getelementptr inbounds nuw i8, ptr %.025.i.i, i64 24
  %41 = icmp ult ptr %40, %37
  br i1 %41, label %.lr.ph.i.i, label %._crit_edge.i.i, !llvm.loop !24

._crit_edge.i.i:                                  ; preds = %.lr.ph.i.i, %34
  %42 = getelementptr inbounds nuw i8, ptr %0, i64 48
  store i32 0, ptr %42, align 8, !tbaa !26
  %43 = sitofp i32 %35 to float
  %44 = load float, ptr %21, align 4, !tbaa !16
  %45 = fmul float %44, %43
  %46 = fptosi float %45 to i32
  %47 = getelementptr inbounds nuw i8, ptr %0, i64 60
  store i32 %46, ptr %47, align 4, !tbaa !27
  %48 = load float, ptr %22, align 8, !tbaa !17
  %49 = fmul float %48, %43
  %50 = fptosi float %49 to i32
  %51 = getelementptr inbounds nuw i8, ptr %0, i64 56
  store i32 %50, ptr %51, align 8, !tbaa !28
  %.pre.i = load i32, ptr %5, align 4, !tbaa !3
  %52 = icmp slt i32 %.pre.i, 1
  %53 = select i1 %52, ptr %0, ptr null
  br label %_ZL11_uhash_initP10UHashtablePFi8UElementEPFaS1_S1_ES5_iP10UErrorCode.exit

_ZL11_uhash_initP10UHashtablePFi8UElementEPFaS1_S1_ES5_iP10UErrorCode.exit: ; preds = %.critedge, %33, %._crit_edge.i.i
  %.0.i = phi ptr [ null, %.critedge ], [ null, %33 ], [ %53, %._crit_edge.i.i ]
  ret ptr %.0.i
}